; Function Attrs: nounwind uwtable
define internal void @evhttp_write_cb(ptr readnone captures(none) %0, ptr noundef %1) #0 {
  %3 = getelementptr inbounds nuw i8, ptr %1, i64 312
  %4 = load ptr, ptr %3, align 8
  %.not = icmp eq ptr %4, null
  br i1 %.not, label %8, label %5

5:                                                ; preds = %2
  %6 = getelementptr inbounds nuw i8, ptr %1, i64 320
  %7 = load ptr, ptr %6, align 8
  tail call void %4(ptr noundef nonnull %1, ptr noundef %7) #18
  br label %8

8:                                                ; preds = %5, %2
  ret void
}